Certificate:
    Data:
        Version: 3 (0x2)
        Serial Number:
            68:42:f8:76:54:0c:2b:e0:d7:c4:4d:b1:ad:aa:26:dd:06:b3:43:78
        Signature Algorithm: sha256WithRSAEncryption
        Issuer: C = CA, ST = Wonderland, L = Alice Home, OU = Test CA, O = mtls package
        Validity
            Not Before: Apr 19 17:13:53 2024 GMT
            Not After : Aug 21 17:13:53 3023 GMT
        Subject: C = CA, ST = Wonderland, L = Alice Home, OU = Test CA, O = mtls package
        Subject Public Key Info:
            Public Key Algorithm: rsaEncryption
                Public-Key: (4096 bit)
                Modulus:
                    00:b6:46:3e:25:08:05:2e:07:59:ea:93:36:6c:45:
                    a9:59:21:3e:31:cf:a8:0c:d0:19:1f:ef:03:68:4a:
                    44:b1:38:de:89:00:f5:d3:f3:1f:0d:bc:ea:b4:f2:
                    93:c2:e5:8b:70:80:4e:95:51:50:73:e9:a7:73:19:
                    a1:f6:eb:76:fe:d6:18:14:ad:c9:7b:f3:4c:92:bd:
                    a9:57:35:78:15:2c:89:b2:07:b6:da:13:c5:c6:20:
                    1b:bb:95:f2:3e:90:35:79:29:1a:97:39:38:6c:cd:
                    87:c8:bb:c5:0b:c5:40:92:60:16:c8:92:63:7b:25:
                    41:7b:7a:a3:1d:93:75:f2:8c:4e:a9:12:a3:02:3d:
                    76:63:d8:0c:b2:73:77:9d:ae:f6:5d:d7:52:eb:54:
                    d1:f1:45:00:15:6b:7f:df:bf:8f:ba:83:01:a6:67:
                    76:5b:02:7d:60:64:02:08:bd:a6:77:a0:43:72:06:
                    c7:17:ea:a5:ef:b7:41:3d:dd:51:a6:fa:09:10:39:
                    fe:03:1f:dc:5d:99:f9:f3:cf:5f:25:f9:c8:94:a4:
                    b4:3a:1c:be:7f:ef:fb:76:0b:be:3d:34:10:81:0f:
                    25:fa:7a:62:93:dd:0a:84:54:1d:20:41:e9:a2:ef:
                    85:01:ef:5d:7f:c6:87:95:1f:b1:2a:fb:91:bd:4a:
                    a1:88:41:77:64:d8:9d:ac:63:18:09:a8:be:6b:97:
                    c5:14:70:34:a5:a0:0a:bd:f9:48:6c:21:bf:c4:42:
                    44:ae:b9:e9:f2:a2:79:86:bc:cf:36:89:0d:08:68:
                    eb:23:32:b0:96:bf:bc:0a:ac:39:46:f3:e7:17:a5:
                    02:a6:7a:ca:a8:49:49:be:f1:25:32:93:64:28:da:
                    c9:5b:b5:23:df:d0:c3:d6:0c:3a:5b:88:8c:ab:1c:
                    cd:3d:47:b1:39:ee:aa:6b:4e:7c:13:12:84:ce:f1:
                    d2:98:14:79:97:f8:e1:da:44:2a:f0:e0:a0:f4:e7:
                    77:24:85:43:38:9a:28:ec:71:7e:60:74:8f:0a:6d:
                    fa:10:d3:8a:d7:9d:75:c0:70:8e:e4:5b:4e:32:39:
                    76:b4:8e:32:4f:35:bf:71:29:ba:78:9f:77:9b:79:
                    e6:e2:9e:d1:b2:8b:0a:8b:53:fe:35:ec:eb:3a:6c:
                    9b:c1:47:9c:26:4f:61:c6:dc:25:6e:75:ba:28:dc:
                    34:a4:03:9d:a3:d8:52:26:79:be:6c:82:99:29:7d:
                    95:24:58:fc:4d:67:b2:41:b7:00:6c:a4:19:c3:8a:
                    e8:a4:58:2f:14:78:b4:49:21:a7:63:d6:24:6e:5c:
                    88:fe:5f:67:8b:ec:90:3f:35:05:89:5f:02:6e:fe:
                    28:0c:53
                Exponent: 65537 (0x10001)
        X509v3 extensions:
            X509v3 Subject Key Identifier: 
                4E:0B:00:F4:B2:54:02:88:E2:76:55:84:EA:4C:35:72:5E:EA:5A:09
            X509v3 Authority Key Identifier: 
                4E:0B:00:F4:B2:54:02:88:E2:76:55:84:EA:4C:35:72:5E:EA:5A:09
            X509v3 Basic Constraints: critical
                CA:TRUE
    Signature Algorithm: sha256WithRSAEncryption
    Signature Value:
        4e:8b:eb:69:d7:3b:22:1f:36:80:06:9e:de:4b:38:8f:7d:5d:
        9a:c7:ba:7c:a7:d9:6e:21:df:00:87:e6:aa:2e:1f:c1:d1:2d:
        8a:35:d9:17:50:b8:e1:12:2f:18:22:86:e3:20:c5:e0:5d:dd:
        2c:e8:3f:59:86:12:ff:de:43:34:a3:c6:24:a7:f4:6d:ac:27:
        9a:cb:f3:8f:a5:b4:89:ed:c8:e8:0d:a9:44:26:31:36:0d:c4:
        8d:a3:5d:ee:67:02:bd:b3:71:49:9e:f1:0e:62:0c:e0:8e:3e:
        03:22:47:c2:5f:b6:2f:51:c5:bb:1f:18:82:ef:43:9e:5d:99:
        e8:aa:d5:6d:31:5a:70:62:cb:6e:e9:7a:73:ce:3e:4f:e5:f9:
        46:76:f0:4c:9b:c4:92:8b:28:72:dc:8e:7a:ba:e2:d0:f4:f3:
        ab:0a:da:03:93:41:56:0e:bb:55:f2:64:c2:f0:1f:3d:f1:67:
        55:96:ea:7b:ad:14:1d:4b:0f:d0:b0:67:0e:e3:04:87:b2:e2:
        f4:49:c2:f2:f5:d8:7b:18:a5:b6:e0:8a:b3:02:b8:42:20:ea:
        93:ff:b6:8c:72:68:b0:54:8b:5b:e7:4c:81:f8:79:96:91:a1:
        26:ea:0c:8a:9d:75:d7:2e:8d:1c:41:d3:2a:69:d4:74:49:33:
        6d:47:bd:0d:60:84:af:48:11:7a:60:9f:be:69:4a:00:2f:ce:
        90:56:5e:4a:2c:30:5e:55:cb:9b:41:d6:c2:f0:a1:33:13:52:
        04:dd:dc:53:ca:7c:9a:38:4b:9e:9e:9d:29:ad:e3:5c:59:61:
        0c:69:e7:70:6d:c9:0e:5e:aa:f1:ab:42:4d:54:d4:ce:21:59:
        ce:95:e6:b5:c2:3a:d6:1b:59:6c:bc:21:9c:38:42:c7:c2:26:
        b8:e5:18:36:00:03:a1:e6:89:5b:66:6f:04:b9:66:7e:13:18:
        7a:c1:11:b2:27:4c:7a:39:c8:81:aa:db:d4:bc:fe:7e:79:10:
        cb:77:61:fa:c1:51:91:dc:ca:6f:19:58:7c:e9:50:83:64:29:
        5d:da:0a:37:3f:b7:34:cd:2c:7b:b9:fd:2f:18:dd:89:3a:d7:
        9c:8e:ba:9a:7c:c2:ad:5c:af:1d:26:d8:46:a4:c8:63:9c:4b:
        b0:dc:81:df:8c:ce:9e:60:cf:83:fd:e2:d4:cb:5f:53:d0:a4:
        a2:66:59:6e:ad:0b:db:a5:91:7c:f0:d7:d8:df:0f:95:28:c8:
        06:ea:f7:4b:18:1c:8f:7f:f2:60:c6:a3:94:23:da:09:1c:4c:
        98:b6:6f:69:89:58:da:78:de:dd:6a:bb:7c:e2:f5:8e:19:b2:
        21:9c:3f:fb:f2:08:53:31
-----BEGIN CERTIFICATE-----
MIIFozCCA4ugAwIBAgIUaEL4dlQMK+DXxE2xraom3QazQ3gwDQYJKoZIhvcNAQEL
BQAwYDELMAkGA1UEBhMCQ0ExEzARBgNVBAgMCldvbmRlcmxhbmQxEzARBgNVBAcM
CkFsaWNlIEhvbWUxEDAOBgNVBAsMB1Rlc3QgQ0ExFTATBgNVBAoMDG10bHMgcGFj
a2FnZTAgFw0yNDA0MTkxNzEzNTNaGA8zMDIzMDgyMTE3MTM1M1owYDELMAkGA1UE
BhMCQ0ExEzARBgNVBAgMCldvbmRlcmxhbmQxEzARBgNVBAcMCkFsaWNlIEhvbWUx
EDAOBgNVBAsMB1Rlc3QgQ0ExFTATBgNVBAoMDG10bHMgcGFja2FnZTCCAiIwDQYJ
KoZIhvcNAQEBBQADggIPADCCAgoCggIBALZGPiUIBS4HWeqTNmxFqVkhPjHPqAzQ
GR/vA2hKRLE43okA9dPzHw286rTyk8Lli3CATpVRUHPpp3MZofbrdv7WGBStyXvz
TJK9qVc1eBUsibIHttoTxcYgG7uV8j6QNXkpGpc5OGzNh8i7xQvFQJJgFsiSY3sl
QXt6ox2TdfKMTqkSowI9dmPYDLJzd52u9l3XUutU0fFFABVrf9+/j7qDAaZndlsC
fWBkAgi9pnegQ3IGxxfqpe+3QT3dUab6CRA5/gMf3F2Z+fPPXyX5yJSktDocvn/v
+3YLvj00EIEPJfp6YpPdCoRUHSBB6aLvhQHvXX/Gh5UfsSr7kb1KoYhBd2TYnaxj
GAmovmuXxRRwNKWgCr35SGwhv8RCRK656fKieYa8zzaJDQho6yMysJa/vAqsOUbz
5xelAqZ6yqhJSb7xJTKTZCjayVu1I9/Qw9YMOluIjKsczT1HsTnuqmtOfBMShM7x
0pgUeZf44dpEKvDgoPTndySFQziaKOxxfmB0jwpt+hDTiteddcBwjuRbTjI5drSO
Mk81v3Epunifd5t55uKe0bKLCotT/jXs6zpsm8FHnCZPYcbcJW51uijcNKQDnaPY
UiZ5vmyCmSl9lSRY/E1nskG3AGykGcOK6KRYLxR4tEkhp2PWJG5ciP5fZ4vskD81
BYlfAm7+KAxTAgMBAAGjUzBRMB0GA1UdDgQWBBROCwD0slQCiOJ2VYTqTDVyXupa
CTAfBgNVHSMEGDAWgBROCwD0slQCiOJ2VYTqTDVyXupaCTAPBgNVHRMBAf8EBTAD
AQH/MA0GCSqGSIb3DQEBCwUAA4ICAQBOi+tp1zsiHzaABp7eSziPfV2ax7p8p9lu
Id8Ah+aqLh/B0S2KNdkXULjhEi8YIobjIMXgXd0s6D9ZhhL/3kM0o8Ykp/RtrCea
y/OPpbSJ7cjoDalEJjE2DcSNo13uZwK9s3FJnvEOYgzgjj4DIkfCX7YvUcW7HxiC
70OeXZnoqtVtMVpwYstu6Xpzzj5P5flGdvBMm8SSiyhy3I56uuLQ9POrCtoDk0FW
DrtV8mTC8B898WdVlup7rRQdSw/QsGcO4wSHsuL0ScLy9dh7GKW24IqzArhCIOqT
/7aMcmiwVItb50yB+HmWkaEm6gyKnXXXLo0cQdMqadR0STNtR70NYISvSBF6YJ++
aUoAL86QVl5KLDBeVcubQdbC8KEzE1IE3dxTynyaOEuenp0preNcWWEMaedwbckO
Xqrxq0JNVNTOIVnOlea1wjrWG1lsvCGcOELHwia45Rg2AAOh5olbZm8EuWZ+Exh6
wRGyJ0x6OciBqtvUvP5+eRDLd2H6wVGR3MpvGVh86VCDZCld2go3P7c0zSx7uf0v
GN2JOtecjrqafMKtXK8dJthGpMhjnEuw3IHfjM6eYM+D/eLUy19T0KSiZllurQvb
pZF88NfY3w+VKMgG6vdLGByPf/JgxqOUI9oJHEyYtm9piVjaeN7dart84vWOGbIh
nD/78ghTMQ==
-----END CERTIFICATE-----
