Certificate Request:
    Data:
        Version: 1 (0x0)
        Subject: C = CA, ST = Wonderland, L = Alice Home, OU = Test Client, O = mtls package, CN = 127.0.0.1
        Subject Public Key Info:
            Public Key Algorithm: rsaEncryption
                Public-Key: (4096 bit)
                Modulus:
                    00:df:db:fd:7a:ef:5b:0b:dc:d1:6a:eb:ca:8a:e5:
                    b7:ea:0f:c1:d3:a7:c3:26:8e:a8:ab:82:c8:52:13:
                    ee:f8:cb:b5:d8:dd:71:02:d3:f6:6a:95:98:cc:2e:
                    dd:39:3a:ef:da:a4:98:a9:25:9b:35:43:74:2d:e0:
                    b4:73:cc:68:d0:b9:f5:93:81:48:7d:da:05:c3:64:
                    b2:ee:5a:b0:15:4c:a8:f5:b1:04:2e:13:f6:b2:6f:
                    ff:f4:17:50:1b:5c:ad:83:a5:d8:bf:19:8f:c2:d9:
                    c3:3e:f7:c1:50:3e:99:bb:3b:14:46:1c:77:5f:fa:
                    d2:49:df:60:4e:17:4b:87:79:67:b3:39:85:0a:9f:
                    f3:2b:03:4b:ca:a0:e3:73:5d:e1:81:9b:b4:db:e8:
                    a7:3f:2d:f0:2b:b9:ad:88:25:0a:85:4b:44:5b:9e:
                    db:17:98:9f:8d:93:d5:8c:21:b9:95:62:db:75:96:
                    98:08:1f:3f:d8:e6:bf:83:57:30:82:07:75:09:fa:
                    89:c1:b7:b2:2f:f8:24:d5:fd:b4:0d:9b:3c:d6:f6:
                    9b:54:06:6e:b2:8d:3b:0d:1e:a9:50:89:c6:4a:bd:
                    9a:af:6a:3e:15:bc:c9:40:d5:06:7d:1a:37:2a:63:
                    db:df:f8:d2:70:fe:33:1c:6e:c6:64:00:a7:3e:aa:
                    90:e0:28:1f:cc:13:1e:47:b2:01:71:7d:9f:8e:fc:
                    f7:fe:4c:44:8d:e0:93:5d:41:5f:85:8a:5f:39:93:
                    b1:82:53:ab:6e:2a:64:f5:e0:19:95:6d:a8:48:14:
                    b1:ed:b2:0e:2f:9c:5c:9c:f3:ea:f3:b6:b6:85:44:
                    e2:c2:8f:87:ba:e9:3a:0d:50:b0:46:54:b3:db:b8:
                    c3:34:b4:51:b9:9a:7c:17:49:42:3c:1e:f0:aa:f6:
                    e2:39:2e:34:c0:c5:2d:d1:2a:dd:6a:8a:23:02:35:
                    ea:74:9a:6c:d8:33:89:b3:62:71:c0:a1:3f:2d:37:
                    39:8c:4e:8c:19:8a:c8:46:e7:4c:bc:db:b4:69:47:
                    71:7f:bd:8f:86:8e:2c:10:d8:24:e5:e8:31:69:ea:
                    c3:d5:c8:28:da:3c:80:18:7f:7b:01:1e:31:88:47:
                    dd:4b:5b:c4:03:d2:e3:69:f2:ab:1a:a0:51:36:26:
                    7e:0f:43:9a:41:15:78:66:b6:a4:38:cb:bb:00:40:
                    51:bd:38:0b:d4:06:9b:b1:06:20:d3:4b:47:82:3d:
                    48:40:c4:7d:04:93:6d:79:c1:7a:11:37:d3:69:d2:
                    4a:67:5d:60:07:ce:04:12:27:4c:6e:cb:b4:f6:9c:
                    8b:4b:0a:d9:12:78:b0:ff:a1:78:14:3a:ca:87:8e:
                    c6:0f:89
                Exponent: 65537 (0x10001)
        Attributes:
            (none)
            Requested Extensions:
    Signature Algorithm: sha256WithRSAEncryption
    Signature Value:
        a5:d3:05:52:b2:7f:68:9e:3e:dc:6a:b1:11:d3:70:56:92:db:
        42:cc:38:a2:7e:d3:d3:fd:11:92:ff:7b:dd:55:15:6f:c0:78:
        d2:c0:7d:11:18:de:29:14:ce:a2:90:5f:f8:e1:a8:6a:de:99:
        b9:3c:19:93:f9:93:d4:a8:d2:40:ca:1e:8c:74:fc:59:6e:68:
        de:89:19:37:18:f3:5d:ac:c9:55:91:0f:97:9a:5e:22:d7:3e:
        fa:bf:ca:78:05:a0:9a:53:84:af:b2:75:12:e2:b9:e8:58:12:
        51:1d:d7:16:3c:41:d5:32:b0:db:cf:c8:1e:a7:d9:da:4d:3c:
        13:5c:5c:66:28:33:be:cc:0f:73:d5:54:3b:15:00:e2:71:41:
        3d:c3:d9:40:34:c7:11:0d:c5:ce:f4:ca:e0:c1:02:87:15:eb:
        b1:1e:f2:23:18:06:db:0c:3f:c8:21:fd:17:35:e2:6b:e2:bb:
        4e:60:b2:bd:57:b4:b5:a1:02:9c:eb:2d:54:27:01:74:53:20:
        60:01:fc:76:81:54:66:12:1a:d7:72:ba:25:0c:61:2c:a3:fc:
        d3:09:f6:28:b6:9a:a1:80:e7:3c:19:e4:69:02:cf:51:c8:50:
        1f:bc:67:46:6e:37:5d:55:39:12:f3:63:62:f3:f8:a7:4a:89:
        4a:22:09:a5:c0:08:22:91:5e:63:c0:45:f2:0f:30:45:41:f5:
        d0:d0:04:d7:67:d0:b7:71:e6:6a:1d:9b:be:d4:11:fb:c8:15:
        bc:57:48:ba:54:f7:d7:82:72:ce:13:9b:43:2b:38:c4:d8:b7:
        ca:70:2f:6e:a0:e2:5a:f1:f4:31:4e:93:3d:49:ca:3f:3d:1e:
        f6:32:50:c1:07:ab:47:b4:37:73:93:98:03:95:d0:73:18:e3:
        f7:3e:ca:d3:e2:d8:38:eb:7a:e5:54:55:db:b6:e2:03:b3:85:
        3a:29:a9:36:c4:fe:b3:d3:4e:e1:04:26:bb:84:3d:f5:9c:0d:
        2e:2d:49:c5:39:f8:f1:26:dd:df:fc:29:e1:e3:ce:19:51:6f:
        60:2c:b1:33:df:e3:cc:66:e5:f6:a3:fe:15:9a:b2:11:b4:b1:
        af:ba:9f:6a:bc:47:c6:86:3c:b3:5f:c5:55:43:1c:fb:9c:3e:
        89:1f:9c:81:31:b8:4e:20:5b:9a:0f:a7:e7:81:e3:69:34:5e:
        f0:0d:ed:2c:9a:8e:2f:04:ee:95:d2:5b:26:65:24:08:96:da:
        ac:c2:c8:d7:7d:05:21:aa:c8:5a:83:ef:85:ee:27:20:ca:3a:
        57:88:e7:3a:0d:e9:c1:a1:9d:e7:b8:64:70:71:ed:96:75:ee:
        11:29:aa:48:36:76:06:d4
-----BEGIN CERTIFICATE REQUEST-----
MIIEvTCCAqUCAQAweDELMAkGA1UEBhMCQ0ExEzARBgNVBAgMCldvbmRlcmxhbmQx
EzARBgNVBAcMCkFsaWNlIEhvbWUxFDASBgNVBAsMC1Rlc3QgQ2xpZW50MRUwEwYD
VQQKDAxtdGxzIHBhY2thZ2UxEjAQBgNVBAMMCTEyNy4wLjAuMTCCAiIwDQYJKoZI
hvcNAQEBBQADggIPADCCAgoCggIBAN/b/XrvWwvc0Wrryorlt+oPwdOnwyaOqKuC
yFIT7vjLtdjdcQLT9mqVmMwu3Tk679qkmKklmzVDdC3gtHPMaNC59ZOBSH3aBcNk
su5asBVMqPWxBC4T9rJv//QXUBtcrYOl2L8Zj8LZwz73wVA+mbs7FEYcd1/60knf
YE4XS4d5Z7M5hQqf8ysDS8qg43Nd4YGbtNvopz8t8Cu5rYglCoVLRFue2xeYn42T
1YwhuZVi23WWmAgfP9jmv4NXMIIHdQn6icG3si/4JNX9tA2bPNb2m1QGbrKNOw0e
qVCJxkq9mq9qPhW8yUDVBn0aNypj29/40nD+MxxuxmQApz6qkOAoH8wTHkeyAXF9
n4789/5MRI3gk11BX4WKXzmTsYJTq24qZPXgGZVtqEgUse2yDi+cXJzz6vO2toVE
4sKPh7rpOg1QsEZUs9u4wzS0UbmafBdJQjwe8Kr24jkuNMDFLdEq3WqKIwI16nSa
bNgzibNiccChPy03OYxOjBmKyEbnTLzbtGlHcX+9j4aOLBDYJOXoMWnqw9XIKNo8
gBh/ewEeMYhH3UtbxAPS42nyqxqgUTYmfg9DmkEVeGa2pDjLuwBAUb04C9QGm7EG
INNLR4I9SEDEfQSTbXnBehE302nSSmddYAfOBBInTG7LtPaci0sK2RJ4sP+heBQ6
yoeOxg+JAgMBAAGgADANBgkqhkiG9w0BAQsFAAOCAgEApdMFUrJ/aJ4+3GqxEdNw
VpLbQsw4on7T0/0Rkv973VUVb8B40sB9ERjeKRTOopBf+OGoat6ZuTwZk/mT1KjS
QMoejHT8WW5o3okZNxjzXazJVZEPl5peItc++r/KeAWgmlOEr7J1EuK56FgSUR3X
FjxB1TKw28/IHqfZ2k08E1xcZigzvswPc9VUOxUA4nFBPcPZQDTHEQ3FzvTK4MEC
hxXrsR7yIxgG2ww/yCH9FzXia+K7TmCyvVe0taECnOstVCcBdFMgYAH8doFUZhIa
13K6JQxhLKP80wn2KLaaoYDnPBnkaQLPUchQH7xnRm43XVU5EvNjYvP4p0qJSiIJ
pcAIIpFeY8BF8g8wRUH10NAE12fQt3Hmah2bvtQR+8gVvFdIulT314JyzhObQys4
xNi3ynAvbqDiWvH0MU6TPUnKPz0e9jJQwQerR7Q3c5OYA5XQcxjj9z7K0+LYOOt6
5VRV27biA7OFOimpNsT+s9NO4QQmu4Q99ZwNLi1JxTn48Sbd3/wp4ePOGVFvYCyx
M9/jzGbl9qP+FZqyEbSxr7qfarxHxoY8s1/FVUMc+5w+iR+cgTG4TiBbmg+n54Hj
aTRe8A3tLJqOLwTuldJbJmUkCJbarMLI130FIarIWoPvhe4nIMo6V4jnOg3pwaGd
57hkcHHtlnXuESmqSDZ2BtQ=
-----END CERTIFICATE REQUEST-----
