Certificate:
    Data:
        Version: 1 (0x0)
        Serial Number: 1 (0x1)
        Signature Algorithm: sha256WithRSAEncryption
        Issuer: C = CA, ST = Wonderland, L = Alice Home, OU = Test CA, O = mtls package
        Validity
            Not Before: Apr 19 17:13:55 2024 GMT
            Not After : Aug 21 17:13:55 3023 GMT
        Subject: C = CA, ST = Wonderland, L = Alice Home, OU = Test Client, O = mtls package, CN = 127.0.0.1
        Subject Public Key Info:
            Public Key Algorithm: rsaEncryption
                Public-Key: (4096 bit)
                Modulus:
                    00:df:db:fd:7a:ef:5b:0b:dc:d1:6a:eb:ca:8a:e5:
                    b7:ea:0f:c1:d3:a7:c3:26:8e:a8:ab:82:c8:52:13:
                    ee:f8:cb:b5:d8:dd:71:02:d3:f6:6a:95:98:cc:2e:
                    dd:39:3a:ef:da:a4:98:a9:25:9b:35:43:74:2d:e0:
                    b4:73:cc:68:d0:b9:f5:93:81:48:7d:da:05:c3:64:
                    b2:ee:5a:b0:15:4c:a8:f5:b1:04:2e:13:f6:b2:6f:
                    ff:f4:17:50:1b:5c:ad:83:a5:d8:bf:19:8f:c2:d9:
                    c3:3e:f7:c1:50:3e:99:bb:3b:14:46:1c:77:5f:fa:
                    d2:49:df:60:4e:17:4b:87:79:67:b3:39:85:0a:9f:
                    f3:2b:03:4b:ca:a0:e3:73:5d:e1:81:9b:b4:db:e8:
                    a7:3f:2d:f0:2b:b9:ad:88:25:0a:85:4b:44:5b:9e:
                    db:17:98:9f:8d:93:d5:8c:21:b9:95:62:db:75:96:
                    98:08:1f:3f:d8:e6:bf:83:57:30:82:07:75:09:fa:
                    89:c1:b7:b2:2f:f8:24:d5:fd:b4:0d:9b:3c:d6:f6:
                    9b:54:06:6e:b2:8d:3b:0d:1e:a9:50:89:c6:4a:bd:
                    9a:af:6a:3e:15:bc:c9:40:d5:06:7d:1a:37:2a:63:
                    db:df:f8:d2:70:fe:33:1c:6e:c6:64:00:a7:3e:aa:
                    90:e0:28:1f:cc:13:1e:47:b2:01:71:7d:9f:8e:fc:
                    f7:fe:4c:44:8d:e0:93:5d:41:5f:85:8a:5f:39:93:
                    b1:82:53:ab:6e:2a:64:f5:e0:19:95:6d:a8:48:14:
                    b1:ed:b2:0e:2f:9c:5c:9c:f3:ea:f3:b6:b6:85:44:
                    e2:c2:8f:87:ba:e9:3a:0d:50:b0:46:54:b3:db:b8:
                    c3:34:b4:51:b9:9a:7c:17:49:42:3c:1e:f0:aa:f6:
                    e2:39:2e:34:c0:c5:2d:d1:2a:dd:6a:8a:23:02:35:
                    ea:74:9a:6c:d8:33:89:b3:62:71:c0:a1:3f:2d:37:
                    39:8c:4e:8c:19:8a:c8:46:e7:4c:bc:db:b4:69:47:
                    71:7f:bd:8f:86:8e:2c:10:d8:24:e5:e8:31:69:ea:
                    c3:d5:c8:28:da:3c:80:18:7f:7b:01:1e:31:88:47:
                    dd:4b:5b:c4:03:d2:e3:69:f2:ab:1a:a0:51:36:26:
                    7e:0f:43:9a:41:15:78:66:b6:a4:38:cb:bb:00:40:
                    51:bd:38:0b:d4:06:9b:b1:06:20:d3:4b:47:82:3d:
                    48:40:c4:7d:04:93:6d:79:c1:7a:11:37:d3:69:d2:
                    4a:67:5d:60:07:ce:04:12:27:4c:6e:cb:b4:f6:9c:
                    8b:4b:0a:d9:12:78:b0:ff:a1:78:14:3a:ca:87:8e:
                    c6:0f:89
                Exponent: 65537 (0x10001)
    Signature Algorithm: sha256WithRSAEncryption
    Signature Value:
        82:c1:b6:d9:14:09:5c:f9:71:b9:37:22:d9:2f:5b:0b:78:a5:
        7d:27:47:72:33:85:5f:47:0d:c3:9c:ac:6d:ce:f3:de:90:12:
        28:2b:94:68:10:4d:3c:d5:d1:3c:da:e5:6a:57:7b:6f:63:18:
        7f:f8:36:6a:0e:29:fa:55:61:36:f6:9f:d3:60:55:fa:fd:7b:
        12:f8:7f:61:d7:5e:ed:d1:9f:c3:56:9b:4b:ca:05:c2:a6:23:
        59:08:fd:c8:fa:2e:fa:40:ec:33:ac:78:34:e3:46:80:b3:6b:
        5f:d5:75:14:19:53:b2:73:6d:8e:cb:ca:9c:5c:8f:d4:4d:ec:
        06:a3:7f:58:e9:14:70:39:67:92:74:5f:2b:a1:04:13:05:97:
        37:a2:21:a1:90:fb:98:e8:1d:2f:4d:e4:f7:66:e8:d2:8b:4e:
        c6:1f:7e:d0:c1:b0:8f:44:57:61:42:dc:8b:bc:b9:0e:28:1a:
        fa:f0:c8:8c:ab:6c:f5:90:d2:36:48:e0:18:e3:bc:a2:df:7f:
        97:4a:8e:71:70:b4:99:ec:b3:ac:59:3b:c0:63:f4:9e:ea:dc:
        2c:3f:23:ca:50:9e:f3:f8:b7:84:41:6b:ad:06:e2:75:3e:92:
        83:0a:83:04:8e:a4:97:83:fb:56:34:2d:33:ca:aa:64:64:06:
        6e:a5:3e:99:75:25:84:6b:5d:4d:18:6d:15:59:05:b5:2b:64:
        39:29:cc:e2:d9:6c:47:07:89:a7:9f:c1:5f:88:02:79:73:6c:
        91:41:16:ff:3b:17:59:af:be:77:e4:99:8d:8d:13:5f:15:4a:
        5d:ba:bd:d2:04:5d:74:67:d7:47:95:a2:99:f5:9b:ea:1d:b5:
        56:f7:74:46:72:bf:90:f0:95:7f:24:26:15:01:fa:2d:96:ac:
        5f:ef:d8:4b:0f:c8:52:4e:d2:49:8f:75:c7:16:c1:8d:b4:2c:
        b3:fa:b9:82:ba:53:a7:67:0a:1b:9a:a6:e7:27:b9:56:bf:0d:
        49:0b:6a:19:4d:f9:14:25:b6:f6:cf:68:2d:01:9e:68:93:7c:
        b9:05:ec:4e:59:17:69:c8:08:52:d4:2a:e7:f5:0d:7b:6a:81:
        a9:de:15:07:6b:56:fb:b3:80:47:96:54:2e:86:5e:e9:b8:be:
        6e:31:fe:d3:8d:49:31:92:5b:b4:ec:31:db:97:84:b7:d9:a9:
        bf:e8:7d:5f:53:3e:22:09:6d:0b:2c:5a:21:15:22:89:3c:40:
        a4:25:26:5d:2b:a1:9f:46:a1:7d:5c:3f:8d:69:e8:c0:8c:2b:
        a0:1c:49:85:c2:79:a3:4b:2d:21:64:fb:8c:03:0d:d8:06:cc:
        2e:4c:30:1d:a4:31:cb:d9
-----BEGIN CERTIFICATE-----
MIIFTjCCAzYCAQEwDQYJKoZIhvcNAQELBQAwYDELMAkGA1UEBhMCQ0ExEzARBgNV
BAgMCldvbmRlcmxhbmQxEzARBgNVBAcMCkFsaWNlIEhvbWUxEDAOBgNVBAsMB1Rl
c3QgQ0ExFTATBgNVBAoMDG10bHMgcGFja2FnZTAgFw0yNDA0MTkxNzEzNTVaGA8z
MDIzMDgyMTE3MTM1NVoweDELMAkGA1UEBhMCQ0ExEzARBgNVBAgMCldvbmRlcmxh
bmQxEzARBgNVBAcMCkFsaWNlIEhvbWUxFDASBgNVBAsMC1Rlc3QgQ2xpZW50MRUw
EwYDVQQKDAxtdGxzIHBhY2thZ2UxEjAQBgNVBAMMCTEyNy4wLjAuMTCCAiIwDQYJ
KoZIhvcNAQEBBQADggIPADCCAgoCggIBAN/b/XrvWwvc0Wrryorlt+oPwdOnwyaO
qKuCyFIT7vjLtdjdcQLT9mqVmMwu3Tk679qkmKklmzVDdC3gtHPMaNC59ZOBSH3a
BcNksu5asBVMqPWxBC4T9rJv//QXUBtcrYOl2L8Zj8LZwz73wVA+mbs7FEYcd1/6
0knfYE4XS4d5Z7M5hQqf8ysDS8qg43Nd4YGbtNvopz8t8Cu5rYglCoVLRFue2xeY
n42T1YwhuZVi23WWmAgfP9jmv4NXMIIHdQn6icG3si/4JNX9tA2bPNb2m1QGbrKN
Ow0eqVCJxkq9mq9qPhW8yUDVBn0aNypj29/40nD+MxxuxmQApz6qkOAoH8wTHkey
AXF9n4789/5MRI3gk11BX4WKXzmTsYJTq24qZPXgGZVtqEgUse2yDi+cXJzz6vO2
toVE4sKPh7rpOg1QsEZUs9u4wzS0UbmafBdJQjwe8Kr24jkuNMDFLdEq3WqKIwI1
6nSabNgzibNiccChPy03OYxOjBmKyEbnTLzbtGlHcX+9j4aOLBDYJOXoMWnqw9XI
KNo8gBh/ewEeMYhH3UtbxAPS42nyqxqgUTYmfg9DmkEVeGa2pDjLuwBAUb04C9QG
m7EGINNLR4I9SEDEfQSTbXnBehE302nSSmddYAfOBBInTG7LtPaci0sK2RJ4sP+h
eBQ6yoeOxg+JAgMBAAEwDQYJKoZIhvcNAQELBQADggIBAILBttkUCVz5cbk3Itkv
Wwt4pX0nR3IzhV9HDcOcrG3O896QEigrlGgQTTzV0Tza5WpXe29jGH/4NmoOKfpV
YTb2n9NgVfr9exL4f2HXXu3Rn8NWm0vKBcKmI1kI/cj6LvpA7DOseDTjRoCza1/V
dRQZU7JzbY7Lypxcj9RN7Aajf1jpFHA5Z5J0XyuhBBMFlzeiIaGQ+5joHS9N5Pdm
6NKLTsYfftDBsI9EV2FC3Iu8uQ4oGvrwyIyrbPWQ0jZI4BjjvKLff5dKjnFwtJns
s6xZO8Bj9J7q3Cw/I8pQnvP4t4RBa60G4nU+koMKgwSOpJeD+1Y0LTPKqmRkBm6l
Ppl1JYRrXU0YbRVZBbUrZDkpzOLZbEcHiaefwV+IAnlzbJFBFv87F1mvvnfkmY2N
E18VSl26vdIEXXRn10eVopn1m+odtVb3dEZyv5DwlX8kJhUB+i2WrF/v2EsPyFJO
0kmPdccWwY20LLP6uYK6U6dnChuapucnuVa/DUkLahlN+RQltvbPaC0BnmiTfLkF
7E5ZF2nICFLUKuf1DXtqganeFQdrVvuzgEeWVC6GXum4vm4x/tONSTGSW7TsMduX
hLfZqb/ofV9TPiIJbQssWiEVIok8QKQlJl0roZ9GoX1cP41p6MCMK6AcSYXCeaNL
LSFk+4wDDdgGzC5MMB2kMcvZ
-----END CERTIFICATE-----
