Certificate Request:
    Data:
        Version: 1 (0x0)
        Subject: C = CA, ST = Wonderland, L = Alice Home, OU = Test Server, O = mtls package, CN = 127.0.0.1
        Subject Public Key Info:
            Public Key Algorithm: rsaEncryption
                Public-Key: (4096 bit)
                Modulus:
                    00:a7:23:0f:90:a4:f1:ba:14:58:96:af:cc:37:4d:
                    c4:5f:ac:9e:d9:ce:ee:e6:90:82:7f:41:a7:d3:52:
                    33:55:04:a9:aa:a2:99:69:a9:47:6f:02:32:4b:76:
                    a2:9e:ec:44:41:75:35:91:86:a0:d0:21:22:a3:04:
                    5d:8a:b4:e2:eb:52:3f:75:a7:46:03:b2:27:a8:69:
                    54:35:eb:79:12:03:13:f8:9f:36:d0:55:30:56:ed:
                    6c:63:84:b2:7f:9a:2b:66:e5:d5:72:d4:19:0b:1a:
                    37:a1:b8:b6:bf:e7:c4:29:bc:1f:86:a0:cb:fc:f8:
                    d2:a3:7c:7b:6c:e4:b9:a7:f4:d0:c6:b8:c2:da:11:
                    82:e5:c6:2f:60:e5:7c:24:99:c6:a1:e9:5f:97:e2:
                    c5:a2:fb:8b:fc:81:07:a8:30:91:7a:d5:7b:8c:e4:
                    0a:93:32:59:22:98:43:f8:52:48:3a:fa:fe:d5:77:
                    3a:cd:af:37:7a:ed:a4:cb:93:cf:9c:85:e7:a8:cf:
                    1c:73:c5:1d:c6:59:1a:fa:6e:7a:8e:65:82:12:e0:
                    c3:2d:1e:4a:fa:42:f8:95:33:22:1a:5f:ab:31:cc:
                    b2:8b:dd:73:48:16:cb:50:d0:75:60:19:aa:df:7f:
                    32:0d:af:c0:85:99:99:68:2b:9a:0f:4e:9c:bd:e5:
                    e4:4d:63:43:8e:f3:20:ba:00:1a:ab:bc:e5:5f:d7:
                    85:0a:0d:76:f6:12:ff:24:ac:b1:d9:39:bf:e6:33:
                    7a:e4:39:c7:5e:b6:64:c6:5e:31:be:a1:bb:31:9a:
                    aa:c0:88:8f:20:62:b2:66:da:f4:ed:02:c2:89:20:
                    69:47:29:e4:9b:72:7b:91:2f:b1:c7:06:25:81:4b:
                    08:e9:55:f1:f7:0a:ba:2d:e3:b9:8e:73:dd:38:6e:
                    60:89:6c:7c:06:ed:5b:0b:bd:51:1f:ba:9a:86:96:
                    17:d6:68:3d:6d:8b:14:97:6c:5f:49:e9:bf:68:5a:
                    4e:5f:38:c1:78:87:41:21:c7:86:4c:0a:cb:8d:99:
                    3b:cf:b8:e5:ea:67:a9:3d:6d:c0:75:49:83:6c:56:
                    1d:3c:e2:ce:32:ff:55:3d:03:3b:20:f9:c2:6c:f4:
                    8a:44:96:b2:3b:7f:64:79:bb:84:57:52:06:d8:40:
                    32:47:f9:4c:13:3a:83:9e:c0:56:27:32:ba:af:3e:
                    c9:ff:fc:13:65:6f:5d:e4:8c:48:c3:53:43:44:bf:
                    d7:18:dd:73:f0:48:05:62:41:87:c5:4f:ad:b8:ef:
                    f7:da:db:8d:a3:44:44:27:85:80:2a:ea:4d:b6:46:
                    19:78:41:99:3c:73:78:ee:1f:8c:98:83:d8:95:ee:
                    bc:7e:d1
                Exponent: 65537 (0x10001)
        Attributes:
            (none)
            Requested Extensions:
    Signature Algorithm: sha256WithRSAEncryption
    Signature Value:
        69:06:6c:d4:f6:a5:74:aa:91:75:cf:7b:80:3a:fe:05:c6:79:
        8d:aa:6e:1b:62:44:41:33:df:69:56:93:3e:11:5a:49:08:00:
        56:a0:82:4f:ac:dd:69:c4:5d:16:67:3d:e4:10:67:95:b3:a6:
        2a:4f:44:34:bd:04:7f:a6:a9:7d:69:d9:25:d1:31:27:72:a7:
        5d:a6:af:8f:40:b4:08:e8:ee:b8:1a:a3:f5:6b:bc:f0:4c:84:
        37:ad:f8:df:62:95:31:ee:54:e6:54:21:ec:7e:b8:d5:64:de:
        c4:eb:6e:94:f9:a7:71:1b:0a:73:38:29:ca:00:e1:b8:61:a0:
        b8:29:1c:b9:88:0a:7c:32:76:d0:dc:d0:db:9a:84:f9:6c:16:
        01:b6:e4:f3:c0:5d:f6:37:ea:c8:19:a6:fd:84:d4:79:05:ad:
        c9:83:67:c4:12:e7:45:ff:26:69:21:f5:d8:79:9b:5d:c2:ec:
        bf:c4:70:53:34:f2:f2:20:27:a6:ef:f4:39:ff:bc:52:e2:32:
        a7:46:5e:44:3d:26:98:b2:e8:43:55:b7:b5:c7:89:4a:ec:61:
        03:02:05:6e:00:e7:e6:64:0e:bf:56:1b:43:55:8a:20:82:8c:
        94:41:28:5b:2d:f5:6a:6f:c9:df:3b:b6:8e:20:55:34:ea:18:
        b1:90:74:7d:e8:84:5a:6f:f1:82:5e:aa:af:f0:12:9a:8d:8d:
        e3:1a:45:b0:c3:a4:c6:c8:02:0a:09:9d:59:94:c5:ec:42:e2:
        df:22:a7:47:9f:4a:6c:08:be:fd:67:ba:73:f7:4d:b5:b6:b9:
        21:b8:af:a7:fd:41:3e:16:b5:e8:0a:96:4f:94:07:1d:31:1e:
        ca:43:3a:61:84:58:41:c5:50:db:54:01:76:85:f4:d7:29:d8:
        1c:ad:ce:02:a9:ee:c8:fa:34:85:79:2b:c7:e0:5c:af:3f:b1:
        91:1d:a3:7a:c7:9e:e8:99:94:64:54:e6:9a:2e:f8:e0:c2:2a:
        2c:f9:b5:aa:8b:fe:cf:7a:8a:10:35:45:99:bd:ac:ca:ff:c6:
        cf:0b:80:aa:ae:0c:95:11:e7:5e:ba:ff:f2:e4:53:83:02:2e:
        9d:75:b2:b8:1e:77:ed:42:27:3c:4e:bc:3c:df:dc:a9:21:cc:
        3e:29:68:5c:c1:f1:99:fd:53:c4:e9:4a:66:55:81:bc:93:8d:
        88:a7:0c:c8:9b:69:82:3a:16:49:7e:4c:fa:6c:21:71:49:f2:
        c2:59:fa:b3:53:f8:48:33:24:5a:bd:27:0f:6d:34:8b:8e:ad:
        b4:1a:69:ad:7d:9b:43:4d:07:7d:e9:8d:c5:6e:36:9c:ee:fe:
        45:fd:33:6b:df:cb:e5:94
-----BEGIN CERTIFICATE REQUEST-----
MIIEvTCCAqUCAQAweDELMAkGA1UEBhMCQ0ExEzARBgNVBAgMCldvbmRlcmxhbmQx
EzARBgNVBAcMCkFsaWNlIEhvbWUxFDASBgNVBAsMC1Rlc3QgU2VydmVyMRUwEwYD
VQQKDAxtdGxzIHBhY2thZ2UxEjAQBgNVBAMMCTEyNy4wLjAuMTCCAiIwDQYJKoZI
hvcNAQEBBQADggIPADCCAgoCggIBAKcjD5Ck8boUWJavzDdNxF+sntnO7uaQgn9B
p9NSM1UEqaqimWmpR28CMkt2op7sREF1NZGGoNAhIqMEXYq04utSP3WnRgOyJ6hp
VDXreRIDE/ifNtBVMFbtbGOEsn+aK2bl1XLUGQsaN6G4tr/nxCm8H4agy/z40qN8
e2zkuaf00Ma4wtoRguXGL2DlfCSZxqHpX5fixaL7i/yBB6gwkXrVe4zkCpMyWSKY
Q/hSSDr6/tV3Os2vN3rtpMuTz5yF56jPHHPFHcZZGvpueo5lghLgwy0eSvpC+JUz
IhpfqzHMsovdc0gWy1DQdWAZqt9/Mg2vwIWZmWgrmg9OnL3l5E1jQ47zILoAGqu8
5V/XhQoNdvYS/ySssdk5v+YzeuQ5x162ZMZeMb6huzGaqsCIjyBismba9O0Cwokg
aUcp5Jtye5EvsccGJYFLCOlV8fcKui3juY5z3ThuYIlsfAbtWwu9UR+6moaWF9Zo
PW2LFJdsX0npv2haTl84wXiHQSHHhkwKy42ZO8+45epnqT1twHVJg2xWHTzizjL/
VT0DOyD5wmz0ikSWsjt/ZHm7hFdSBthAMkf5TBM6g57AVicyuq8+yf/8E2VvXeSM
SMNTQ0S/1xjdc/BIBWJBh8VPrbjv99rbjaNERCeFgCrqTbZGGXhBmTxzeO4fjJiD
2JXuvH7RAgMBAAGgADANBgkqhkiG9w0BAQsFAAOCAgEAaQZs1PaldKqRdc97gDr+
BcZ5japuG2JEQTPfaVaTPhFaSQgAVqCCT6zdacRdFmc95BBnlbOmKk9ENL0Ef6ap
fWnZJdExJ3KnXaavj0C0COjuuBqj9Wu88EyEN63432KVMe5U5lQh7H641WTexOtu
lPmncRsKczgpygDhuGGguCkcuYgKfDJ20NzQ25qE+WwWAbbk88Bd9jfqyBmm/YTU
eQWtyYNnxBLnRf8maSH12HmbXcLsv8RwUzTy8iAnpu/0Of+8UuIyp0ZeRD0mmLLo
Q1W3tceJSuxhAwIFbgDn5mQOv1YbQ1WKIIKMlEEoWy31am/J3zu2jiBVNOoYsZB0
feiEWm/xgl6qr/ASmo2N4xpFsMOkxsgCCgmdWZTF7ELi3yKnR59KbAi+/We6c/dN
tba5Ibivp/1BPha16AqWT5QHHTEeykM6YYRYQcVQ21QBdoX01ynYHK3OAqnuyPo0
hXkrx+Bcrz+xkR2jesee6JmUZFTmmi744MIqLPm1qov+z3qKEDVFmb2syv/GzwuA
qq4MlRHnXrr/8uRTgwIunXWyuB537UInPE68PN/cqSHMPiloXMHxmf1TxOlKZlWB
vJONiKcMyJtpgjoWSX5M+mwhcUnywln6s1P4SDMkWr0nD200i46ttBpprX2bQ00H
femNxW42nO7+Rf0za9/L5ZQ=
-----END CERTIFICATE REQUEST-----
