Certificate:
    Data:
        Version: 3 (0x2)
        Serial Number: 1 (0x1)
        Signature Algorithm: sha256WithRSAEncryption
        Issuer: C = CA, ST = Wonderland, L = Alice Home, OU = Test CA, O = mtls package
        Validity
            Not Before: Apr 19 17:13:54 2024 GMT
            Not After : Aug 21 17:13:54 3023 GMT
        Subject: C = CA, ST = Wonderland, L = Alice Home, OU = Test Server, O = mtls package, CN = 127.0.0.1
        Subject Public Key Info:
            Public Key Algorithm: rsaEncryption
                Public-Key: (4096 bit)
                Modulus:
                    00:a7:23:0f:90:a4:f1:ba:14:58:96:af:cc:37:4d:
                    c4:5f:ac:9e:d9:ce:ee:e6:90:82:7f:41:a7:d3:52:
                    33:55:04:a9:aa:a2:99:69:a9:47:6f:02:32:4b:76:
                    a2:9e:ec:44:41:75:35:91:86:a0:d0:21:22:a3:04:
                    5d:8a:b4:e2:eb:52:3f:75:a7:46:03:b2:27:a8:69:
                    54:35:eb:79:12:03:13:f8:9f:36:d0:55:30:56:ed:
                    6c:63:84:b2:7f:9a:2b:66:e5:d5:72:d4:19:0b:1a:
                    37:a1:b8:b6:bf:e7:c4:29:bc:1f:86:a0:cb:fc:f8:
                    d2:a3:7c:7b:6c:e4:b9:a7:f4:d0:c6:b8:c2:da:11:
                    82:e5:c6:2f:60:e5:7c:24:99:c6:a1:e9:5f:97:e2:
                    c5:a2:fb:8b:fc:81:07:a8:30:91:7a:d5:7b:8c:e4:
                    0a:93:32:59:22:98:43:f8:52:48:3a:fa:fe:d5:77:
                    3a:cd:af:37:7a:ed:a4:cb:93:cf:9c:85:e7:a8:cf:
                    1c:73:c5:1d:c6:59:1a:fa:6e:7a:8e:65:82:12:e0:
                    c3:2d:1e:4a:fa:42:f8:95:33:22:1a:5f:ab:31:cc:
                    b2:8b:dd:73:48:16:cb:50:d0:75:60:19:aa:df:7f:
                    32:0d:af:c0:85:99:99:68:2b:9a:0f:4e:9c:bd:e5:
                    e4:4d:63:43:8e:f3:20:ba:00:1a:ab:bc:e5:5f:d7:
                    85:0a:0d:76:f6:12:ff:24:ac:b1:d9:39:bf:e6:33:
                    7a:e4:39:c7:5e:b6:64:c6:5e:31:be:a1:bb:31:9a:
                    aa:c0:88:8f:20:62:b2:66:da:f4:ed:02:c2:89:20:
                    69:47:29:e4:9b:72:7b:91:2f:b1:c7:06:25:81:4b:
                    08:e9:55:f1:f7:0a:ba:2d:e3:b9:8e:73:dd:38:6e:
                    60:89:6c:7c:06:ed:5b:0b:bd:51:1f:ba:9a:86:96:
                    17:d6:68:3d:6d:8b:14:97:6c:5f:49:e9:bf:68:5a:
                    4e:5f:38:c1:78:87:41:21:c7:86:4c:0a:cb:8d:99:
                    3b:cf:b8:e5:ea:67:a9:3d:6d:c0:75:49:83:6c:56:
                    1d:3c:e2:ce:32:ff:55:3d:03:3b:20:f9:c2:6c:f4:
                    8a:44:96:b2:3b:7f:64:79:bb:84:57:52:06:d8:40:
                    32:47:f9:4c:13:3a:83:9e:c0:56:27:32:ba:af:3e:
                    c9:ff:fc:13:65:6f:5d:e4:8c:48:c3:53:43:44:bf:
                    d7:18:dd:73:f0:48:05:62:41:87:c5:4f:ad:b8:ef:
                    f7:da:db:8d:a3:44:44:27:85:80:2a:ea:4d:b6:46:
                    19:78:41:99:3c:73:78:ee:1f:8c:98:83:d8:95:ee:
                    bc:7e:d1
                Exponent: 65537 (0x10001)
        X509v3 extensions:
            X509v3 Subject Alternative Name: 
                DNS:localhost, IP Address:127.0.0.1
            X509v3 Subject Key Identifier: 
                2F:3A:1B:A4:7B:43:29:C7:4E:79:85:EB:F6:C5:18:E3:5A:11:7E:03
            X509v3 Authority Key Identifier: 
                4E:0B:00:F4:B2:54:02:88:E2:76:55:84:EA:4C:35:72:5E:EA:5A:09
    Signature Algorithm: sha256WithRSAEncryption
    Signature Value:
        6b:69:6b:3e:42:e5:8d:b6:03:08:9e:f4:c7:9d:4e:0a:30:56:
        f4:5a:6a:30:60:40:40:94:02:05:e8:7b:a0:f5:23:1f:d9:cd:
        8d:72:98:bf:71:10:9b:2c:ec:e6:96:db:a6:28:09:5c:46:8d:
        c0:76:09:ca:83:06:13:6a:78:fe:83:2e:53:20:cb:42:60:6c:
        32:d1:e9:45:c5:c6:2a:a4:7d:37:db:84:0b:d7:11:5a:e1:c7:
        0c:ea:74:0b:af:95:85:2e:c8:52:3d:ac:a1:77:2f:1a:2e:3f:
        ad:10:b7:09:e5:f1:93:59:fe:38:27:fe:af:78:93:97:0e:e6:
        69:78:0b:6d:9e:5a:c6:79:1f:90:e2:63:41:a1:74:51:71:b4:
        1e:df:e8:2e:a3:a5:0c:18:55:52:92:53:1d:63:f1:f6:7f:e7:
        da:19:93:07:f9:c7:7e:49:4d:90:0b:14:1f:c4:cd:db:3f:45:
        df:24:26:a9:d7:34:0d:38:e7:d3:95:37:ae:ce:19:22:b8:29:
        f8:a5:5f:3f:ee:73:90:11:d7:9e:dd:b5:f7:ba:b8:34:0b:f2:
        e0:d6:3c:a1:0d:bf:dc:e9:87:f5:0e:09:9e:47:e7:a2:c0:8b:
        83:84:1d:13:4d:b3:72:6f:34:92:8e:e2:4f:f9:08:75:a2:ae:
        db:17:6b:3a:ec:65:58:a0:ad:37:7b:b6:ee:63:14:1c:81:33:
        c8:09:f8:4a:0e:98:5a:d8:4d:1c:2c:46:40:f9:b2:b5:22:20:
        24:05:22:1d:5c:4f:9c:9e:e1:bd:21:b1:c4:61:6f:01:2f:d8:
        2e:21:41:59:46:15:ca:b1:54:57:05:55:1d:10:cd:05:c6:88:
        11:55:23:91:9a:a2:53:c1:e4:c7:3b:2c:65:bc:24:e1:72:ab:
        14:55:35:70:35:a1:27:f9:2d:70:c0:7e:15:79:af:06:67:83:
        4c:b0:27:0a:d9:47:64:fe:a8:e6:1f:e5:aa:bc:d1:d5:90:af:
        11:1c:8f:fb:84:eb:fe:a5:39:32:95:f8:ab:e2:bb:c0:4d:21:
        57:5f:1f:75:c4:b9:01:d1:7b:16:b2:f0:15:1f:5d:f6:a3:10:
        20:84:9b:7c:62:45:ad:1e:4d:5a:a9:00:cd:a8:d8:ad:e1:0a:
        b5:b8:71:4a:b4:cb:9f:2e:dc:3b:75:6d:1f:b5:23:74:0f:a4:
        0f:7b:ff:a0:7a:88:19:75:2b:0d:69:88:c6:b0:74:71:86:30:
        15:94:16:9f:89:f6:a9:20:7f:be:d7:ba:5e:d0:69:9c:9f:72:
        34:ab:5a:a4:ad:f4:63:c5:46:99:89:d3:8c:43:e0:7b:0b:2a:
        c6:fe:65:80:f0:12:26:2b
-----BEGIN CERTIFICATE-----
MIIFszCCA5ugAwIBAgIBATANBgkqhkiG9w0BAQsFADBgMQswCQYDVQQGEwJDQTET
MBEGA1UECAwKV29uZGVybGFuZDETMBEGA1UEBwwKQWxpY2UgSG9tZTEQMA4GA1UE
CwwHVGVzdCBDQTEVMBMGA1UECgwMbXRscyBwYWNrYWdlMCAXDTI0MDQxOTE3MTM1
NFoYDzMwMjMwODIxMTcxMzU0WjB4MQswCQYDVQQGEwJDQTETMBEGA1UECAwKV29u
ZGVybGFuZDETMBEGA1UEBwwKQWxpY2UgSG9tZTEUMBIGA1UECwwLVGVzdCBTZXJ2
ZXIxFTATBgNVBAoMDG10bHMgcGFja2FnZTESMBAGA1UEAwwJMTI3LjAuMC4xMIIC
IjANBgkqhkiG9w0BAQEFAAOCAg8AMIICCgKCAgEApyMPkKTxuhRYlq/MN03EX6ye
2c7u5pCCf0Gn01IzVQSpqqKZaalHbwIyS3ainuxEQXU1kYag0CEiowRdirTi61I/
dadGA7InqGlUNet5EgMT+J820FUwVu1sY4Syf5orZuXVctQZCxo3obi2v+fEKbwf
hqDL/PjSo3x7bOS5p/TQxrjC2hGC5cYvYOV8JJnGoelfl+LFovuL/IEHqDCRetV7
jOQKkzJZIphD+FJIOvr+1Xc6za83eu2ky5PPnIXnqM8cc8Udxlka+m56jmWCEuDD
LR5K+kL4lTMiGl+rMcyyi91zSBbLUNB1YBmq338yDa/AhZmZaCuaD06cveXkTWND
jvMgugAaq7zlX9eFCg129hL/JKyx2Tm/5jN65DnHXrZkxl4xvqG7MZqqwIiPIGKy
Ztr07QLCiSBpRynkm3J7kS+xxwYlgUsI6VXx9wq6LeO5jnPdOG5giWx8Bu1bC71R
H7qahpYX1mg9bYsUl2xfSem/aFpOXzjBeIdBIceGTArLjZk7z7jl6mepPW3AdUmD
bFYdPOLOMv9VPQM7IPnCbPSKRJayO39kebuEV1IG2EAyR/lMEzqDnsBWJzK6rz7J
//wTZW9d5IxIw1NDRL/XGN1z8EgFYkGHxU+tuO/32tuNo0REJ4WAKupNtkYZeEGZ
PHN47h+MmIPYle68ftECAwEAAaNeMFwwGgYDVR0RBBMwEYIJbG9jYWxob3N0hwR/
AAABMB0GA1UdDgQWBBQvOhuke0Mpx055hev2xRjjWhF+AzAfBgNVHSMEGDAWgBRO
CwD0slQCiOJ2VYTqTDVyXupaCTANBgkqhkiG9w0BAQsFAAOCAgEAa2lrPkLljbYD
CJ70x51OCjBW9FpqMGBAQJQCBeh7oPUjH9nNjXKYv3EQmyzs5pbbpigJXEaNwHYJ
yoMGE2p4/oMuUyDLQmBsMtHpRcXGKqR9N9uEC9cRWuHHDOp0C6+VhS7IUj2soXcv
Gi4/rRC3CeXxk1n+OCf+r3iTlw7maXgLbZ5axnkfkOJjQaF0UXG0Ht/oLqOlDBhV
UpJTHWPx9n/n2hmTB/nHfklNkAsUH8TN2z9F3yQmqdc0DTjn05U3rs4ZIrgp+KVf
P+5zkBHXnt2197q4NAvy4NY8oQ2/3OmH9Q4JnkfnosCLg4QdE02zcm80ko7iT/kI
daKu2xdrOuxlWKCtN3u27mMUHIEzyAn4Sg6YWthNHCxGQPmytSIgJAUiHVxPnJ7h
vSGxxGFvAS/YLiFBWUYVyrFUVwVVHRDNBcaIEVUjkZqiU8HkxzssZbwk4XKrFFU1
cDWhJ/ktcMB+FXmvBmeDTLAnCtlHZP6o5h/lqrzR1ZCvERyP+4Tr/qU5MpX4q+K7
wE0hV18fdcS5AdF7FrLwFR9d9qMQIISbfGJFrR5NWqkAzajYreEKtbhxSrTLny7c
O3VtH7UjdA+kD3v/oHqIGXUrDWmIxrB0cYYwFZQWn4n2qSB/vte6XtBpnJ9yNKta
pK30Y8VGmYnTjEPgewsqxv5lgPASJis=
-----END CERTIFICATE-----
